; Function Attrs: nounwind uwtable
define i32 @X509_STORE_CTX_verify(ptr noundef %0) local_unnamed_addr #0 {
  %2 = icmp eq ptr %0, null
  br i1 %2, label %3, label %4

3:                                                ; preds = %1
  tail call void @ERR_new() #10
  tail call void @ERR_set_debug(ptr noundef nonnull @.str, i32 noundef 275, ptr noundef nonnull @__func__.X509_STORE_CTX_verify) #10
  tail call void (i32, i32, ptr, ...) @ERR_set_error(i32 noundef 11, i32 noundef 786690, ptr noundef null) #10
  br label %23

4:                                                ; preds = %1
  %5 = getelementptr inbounds nuw i8, ptr %0, i64 256
  %6 = load ptr, ptr %5, align 8, !tbaa !35
  %.not = icmp eq ptr %6, null
  br i1 %.not, label %9, label %7

7:                                                ; preds = %4
  %8 = tail call fastcc i32 @x509_verify_rpk(ptr noundef %0)
  br label %23

9:                                                ; preds = %4
  %10 = getelementptr inbounds nuw i8, ptr %0, i64 8
  %11 = load ptr, ptr %10, align 8, !tbaa !47
  %12 = icmp eq ptr %11, null
  br i1 %12, label %13, label %21

13:                                               ; preds = %9
  %14 = getelementptr inbounds nuw i8, ptr %0, i64 16
  %15 = load ptr, ptr %14, align 8, !tbaa !48
  %16 = tail call i32 @OPENSSL_sk_num(ptr noundef %15) #10
  %17 = icmp sgt i32 %16, 0
  br i1 %17, label %18, label %21

18:                                               ; preds = %13
  %19 = load ptr, ptr %14, align 8, !tbaa !48
  %20 = tail call ptr @OPENSSL_sk_value(ptr noundef %19, i32 noundef 0) #10
  store ptr %20, ptr %10, align 8, !tbaa !47
  br label %21

21:                                               ; preds = %18, %13, %9
  %22 = tail call fastcc i32 @x509_verify_x509(ptr noundef %0)
  br label %23

23:                                               ; preds = %21, %7, %3
  %.0 = phi i32 [ -1, %3 ], [ %8, %7 ], [ %22, %21 ]
  ret i32 %.0
}